; Function Attrs: mustprogress uwtable
define void @_ZN32pxrInternal_v0_24__pxrReserved__14UsdGeomPrimvar17StripPrimvarsNameERKNS_7TfTokenE(ptr dead_on_unwind noalias writable sret(%"class.pxrInternal_v0_24__pxrReserved__::TfToken") align 8 %0, ptr nocapture noundef nonnull readonly align 8 dereferenceable(8) %1) local_unnamed_addr #1 align 2 personality ptr @__gxx_personality_v0 {
  %3 = alloca %"struct.std::pair", align 8
  %4 = load ptr, ptr %1, align 8
  %5 = ptrtoint ptr %4 to i64
  %6 = and i64 %5, -8
  %.not.i = icmp eq i64 %6, 0
  br i1 %.not.i, label %10, label %7

7:                                                ; preds = %2
  %8 = inttoptr i64 %6 to ptr
  %9 = getelementptr inbounds nuw i8, ptr %8, i64 16
  br label %_ZNK32pxrInternal_v0_24__pxrReserved__7TfToken9GetStringB5cxx11Ev.exit

10:                                               ; preds = %2
  %11 = tail call noundef nonnull align 8 dereferenceable(32) ptr @_ZN32pxrInternal_v0_24__pxrReserved__7TfToken15_GetEmptyStringB5cxx11Ev()
  br label %_ZNK32pxrInternal_v0_24__pxrReserved__7TfToken9GetStringB5cxx11Ev.exit

_ZNK32pxrInternal_v0_24__pxrReserved__7TfToken9GetStringB5cxx11Ev.exit: ; preds = %7, %10
  %12 = phi ptr [ %9, %7 ], [ %11, %10 ]
  %13 = tail call fastcc noundef ptr @_ZNK32pxrInternal_v0_24__pxrReserved__12TfStaticDataINS_12_GLOBAL__N_130_tokens_PrivateStaticTokenTypeENS_27Tf_StaticDataDefaultFactoryIS2_EEEptEv()
  %14 = load ptr, ptr %13, align 8
  %15 = ptrtoint ptr %14 to i64
  %16 = and i64 %15, -8
  %.not.i.i = icmp eq i64 %16, 0
  br i1 %.not.i.i, label %20, label %17

17:                                               ; preds = %_ZNK32pxrInternal_v0_24__pxrReserved__7TfToken9GetStringB5cxx11Ev.exit
  %18 = inttoptr i64 %16 to ptr
  %19 = getelementptr inbounds nuw i8, ptr %18, i64 16
  br label %_ZNK32pxrInternal_v0_24__pxrReserved__7TfTokencvRKNSt7__cxx1112basic_stringIcSt11char_traitsIcESaIcEEEEv.exit

20:                                               ; preds = %_ZNK32pxrInternal_v0_24__pxrReserved__7TfToken9GetStringB5cxx11Ev.exit
  %21 = tail call noundef nonnull align 8 dereferenceable(32) ptr @_ZN32pxrInternal_v0_24__pxrReserved__7TfToken15_GetEmptyStringB5cxx11Ev()
  br label %_ZNK32pxrInternal_v0_24__pxrReserved__7TfTokencvRKNSt7__cxx1112basic_stringIcSt11char_traitsIcESaIcEEEEv.exit

_ZNK32pxrInternal_v0_24__pxrReserved__7TfTokencvRKNSt7__cxx1112basic_stringIcSt11char_traitsIcESaIcEEEEv.exit: ; preds = %17, %20
  %22 = phi ptr [ %19, %17 ], [ %21, %20 ]
  call void @_ZN32pxrInternal_v0_24__pxrReserved__7SdfPath20StripPrefixNamespaceERKNSt7__cxx1112basic_stringIcSt11char_traitsIcESaIcEEES8_(ptr dead_on_unwind nonnull writable sret(%"struct.std::pair") align 8 %3, ptr noundef nonnull align 8 dereferenceable(32) %12, ptr noundef nonnull align 8 dereferenceable(32) %22)
  %23 = getelementptr inbounds nuw i8, ptr %3, i64 32
  %24 = load i8, ptr %23, align 8
  %25 = trunc i8 %24 to i1
  br i1 %25, label %26, label %27

26:                                               ; preds = %_ZNK32pxrInternal_v0_24__pxrReserved__7TfTokencvRKNSt7__cxx1112basic_stringIcSt11char_traitsIcESaIcEEEEv.exit
  invoke void @_ZN32pxrInternal_v0_24__pxrReserved__7TfTokenC1ERKNSt7__cxx1112basic_stringIcSt11char_traitsIcESaIcEEE(ptr noundef nonnull align 8 dereferenceable(8) %0, ptr noundef nonnull align 8 dereferenceable(32) %3)
          to label %_ZN32pxrInternal_v0_24__pxrReserved__7TfTokenC2ERKS0_.exit unwind label %36

27:                                               ; preds = %_ZNK32pxrInternal_v0_24__pxrReserved__7TfTokencvRKNSt7__cxx1112basic_stringIcSt11char_traitsIcESaIcEEEEv.exit
  %28 = load i64, ptr %1, align 8
  store i64 %28, ptr %0, align 8
  %29 = and i64 %28, 7
  %.not.i.i4 = icmp eq i64 %29, 0
  br i1 %.not.i.i4, label %_ZN32pxrInternal_v0_24__pxrReserved__7TfTokenC2ERKS0_.exit, label %30

30:                                               ; preds = %27
  %31 = and i64 %28, -8
  %32 = inttoptr i64 %31 to ptr
  %33 = atomicrmw add ptr %32, i32 2 monotonic, align 4
  %34 = and i32 %33, 1
  %.not1.i.i = icmp eq i32 %34, 0
  br i1 %.not1.i.i, label %35, label %_ZN32pxrInternal_v0_24__pxrReserved__7TfTokenC2ERKS0_.exit

35:                                               ; preds = %30
  store ptr %32, ptr %0, align 8
  br label %_ZN32pxrInternal_v0_24__pxrReserved__7TfTokenC2ERKS0_.exit

_ZN32pxrInternal_v0_24__pxrReserved__7TfTokenC2ERKS0_.exit: ; preds = %35, %30, %27, %26
  call void @_ZNSt7__cxx1112basic_stringIcSt11char_traitsIcESaIcEED1Ev(ptr noundef nonnull align 8 dereferenceable(32) %3) #18
  ret void

36:                                               ; preds = %26
  %37 = landingpad { ptr, i32 }
          cleanup
  call void @_ZNSt7__cxx1112basic_stringIcSt11char_traitsIcESaIcEED1Ev(ptr noundef nonnull align 8 dereferenceable(32) %3) #18
  resume { ptr, i32 } %37
}